target datalayout = "e-m:e-p270:32:32-p271:32:32-p272:64:64-i64:64-i128:128-f80:128-n8:16:32:64-S128"
target triple = "x86_64-pc-linux-gnu"

%struct.H5G_loc_t = type { ptr, ptr }
%struct.H5G_name_t = type { ptr, ptr, i32 }
%struct.H5O_loc_t = type { ptr, i64, i8 }
%struct.H5O_copy_search_comm_dt_ud_t = type { ptr, ptr, %struct.H5O_loc_t }
%struct.H5L_info2_t = type { i32, i8, i64, i32, %union.anon.2 }
%union.anon.2 = type { i64, [8 x i8] }

@H5O_init_g = external global i8, align 1
@H5_libterm_g = external global i8, align 1
@.str.3 = private unnamed_addr constant [101 x i8] c"generated/home/dtcxzyw/WorkSpace/Projects/compilers/llvm-opt-benchmark/bench/hdf5/hdf5/src/H5Ocopy.c\00", align 1
@H5E_OHDR_g = external global i64, align 8
@H5E_CANTGET_g = external global i64, align 8
@H5E_NOTFOUND_g = external global i64, align 8
@H5E_CANTRELEASE_g = external global i64, align 8
@.str.9 = private unnamed_addr constant [20 x i8] c"can't free location\00", align 1
@.str.41 = private unnamed_addr constant [19 x i8] c"can't check object\00", align 1
@__func__.H5O__copy_search_comm_dt_cb = private unnamed_addr constant [28 x i8] c"H5O__copy_search_comm_dt_cb\00", align 1
@.str.50 = private unnamed_addr constant [17 x i8] c"object not found\00", align 1

; Function Attrs: nounwind uwtable
define internal i32 @H5O__copy_search_comm_dt_cb(i64 noundef %0, ptr noundef %1, ptr noundef %2, ptr noundef %3) #0 {
  %5 = alloca i64, align 8
  %6 = alloca ptr, align 8
  %7 = alloca ptr, align 8
  %8 = alloca ptr, align 8
  %9 = alloca ptr, align 8
  %10 = alloca %struct.H5G_loc_t, align 8
  %11 = alloca %struct.H5O_loc_t, align 8
  %12 = alloca %struct.H5G_name_t, align 8
  %13 = alloca i8, align 1
  %14 = alloca i32, align 4
  %15 = alloca i8, align 1
  store i64 %0, ptr %5, align 8, !tbaa !10
  store ptr %1, ptr %6, align 8, !tbaa !8
  store ptr %2, ptr %7, align 8, !tbaa !30
  store ptr %3, ptr %8, align 8, !tbaa !30
  call void @llvm.lifetime.start.p0(i64 8, ptr %9) #8
  %16 = load ptr, ptr %8, align 8, !tbaa !30
  store ptr %16, ptr %9, align 8, !tbaa !158
  call void @llvm.lifetime.start.p0(i64 16, ptr %10) #8
  call void @llvm.lifetime.start.p0(i64 24, ptr %11) #8
  call void @llvm.lifetime.start.p0(i64 24, ptr %12) #8
  call void @llvm.lifetime.start.p0(i64 1, ptr %13) #8
  store i8 0, ptr %13, align 1, !tbaa !12
  call void @llvm.lifetime.start.p0(i64 4, ptr %14) #8
  store i32 0, ptr %14, align 4, !tbaa !14
  call void @llvm.lifetime.start.p0(i64 1, ptr %15) #8
  store i8 0, ptr %15, align 1, !tbaa !12
  %17 = load i8, ptr @H5O_init_g, align 1, !tbaa !12, !range !16, !noundef !17
  %18 = trunc i8 %17 to i1
  br i1 %18, label %23, label %19

19:                                               ; preds = %4
  %20 = load i8, ptr @H5_libterm_g, align 1, !tbaa !12, !range !16, !noundef !17
  %21 = trunc i8 %20 to i1
  %22 = xor i1 %21, true
  br label %23

23:                                               ; preds = %19, %4
  %24 = phi i1 [ true, %4 ], [ %22, %19 ]
  %25 = xor i1 %24, true
  %26 = xor i1 %25, true
  %27 = zext i1 %26 to i32
  %28 = sext i32 %27 to i64
  %29 = call i64 @llvm.expect.i64(i64 %28, i64 1)
  %30 = icmp ne i64 %29, 0
  br i1 %30, label %31, label %113

31:                                               ; preds = %23
  %32 = load ptr, ptr %7, align 8, !tbaa !30
  %33 = getelementptr inbounds nuw %struct.H5L_info2_t, ptr %32, i32 0, i32 0
  %34 = load i32, ptr %33, align 8, !tbaa !162
  %35 = icmp eq i32 %34, 0
  br i1 %35, label %36, label %89

36:                                               ; preds = %31
  %37 = getelementptr inbounds nuw %struct.H5G_loc_t, ptr %10, i32 0, i32 0
  store ptr %11, ptr %37, align 8, !tbaa !18
  %38 = getelementptr inbounds nuw %struct.H5G_loc_t, ptr %10, i32 0, i32 1
  store ptr %12, ptr %38, align 8, !tbaa !22
  %39 = call i32 @H5G_loc_reset(ptr noundef %10)
  %40 = load ptr, ptr %9, align 8, !tbaa !158
  %41 = getelementptr inbounds nuw %struct.H5O_copy_search_comm_dt_ud_t, ptr %40, i32 0, i32 1
  %42 = load ptr, ptr %41, align 8, !tbaa !146
  %43 = load ptr, ptr %6, align 8, !tbaa !8
  %44 = call i32 @H5G_loc_find(ptr noundef %42, ptr noundef %43, ptr noundef %10)
  %45 = icmp slt i32 %44, 0
  br i1 %45, label %46, label %65

46:                                               ; preds = %36
  br label %47

47:                                               ; preds = %46
  br label %48

48:                                               ; preds = %47
  br label %49

49:                                               ; preds = %48
  %50 = load i64, ptr @H5E_OHDR_g, align 8, !tbaa !10
  %51 = load i64, ptr @H5E_NOTFOUND_g, align 8, !tbaa !10
  %52 = call i32 (ptr, ptr, i32, i64, i64, ptr, ...) @H5E_printf_stack(ptr noundef @.str.3, ptr noundef @__func__.H5O__copy_search_comm_dt_cb, i32 noundef 1375, i64 noundef %50, i64 noundef %51, ptr noundef @.str.50)
  br label %53

53:                                               ; preds = %49
  br label %54

54:                                               ; preds = %53
  store i8 1, ptr %15, align 1, !tbaa !12
  %55 = load i8, ptr %15, align 1, !tbaa !12, !range !16, !noundef !17
  %56 = trunc i8 %55 to i1
  %57 = zext i1 %56 to i8
  store i8 %57, ptr %15, align 1, !tbaa !12
  br label %58

58:                                               ; preds = %54
  br label %59

59:                                               ; preds = %58
  br label %60

60:                                               ; preds = %59
  store i32 -1, ptr %14, align 4, !tbaa !14
  br label %90

61:                                               ; No predecessors!
  br label %62

62:                                               ; preds = %61
  br label %63

63:                                               ; preds = %62
  br label %64

64:                                               ; preds = %63
  br label %65

65:                                               ; preds = %64, %36
  store i8 1, ptr %13, align 1, !tbaa !12
  %66 = load ptr, ptr %9, align 8, !tbaa !158
  %67 = call i32 @H5O__copy_search_comm_dt_check(ptr noundef %11, ptr noundef %66)
  %68 = icmp slt i32 %67, 0
  br i1 %68, label %69, label %88

69:                                               ; preds = %65
  br label %70

70:                                               ; preds = %69
  br label %71

71:                                               ; preds = %70
  br label %72

72:                                               ; preds = %71
  %73 = load i64, ptr @H5E_OHDR_g, align 8, !tbaa !10
  %74 = load i64, ptr @H5E_CANTGET_g, align 8, !tbaa !10
  %75 = call i32 (ptr, ptr, i32, i64, i64, ptr, ...) @H5E_printf_stack(ptr noundef @.str.3, ptr noundef @__func__.H5O__copy_search_comm_dt_cb, i32 noundef 1380, i64 noundef %73, i64 noundef %74, ptr noundef @.str.41)
  br label %76

76:                                               ; preds = %72
  br label %77

77:                                               ; preds = %76
  store i8 1, ptr %15, align 1, !tbaa !12
  %78 = load i8, ptr %15, align 1, !tbaa !12, !range !16, !noundef !17
  %79 = trunc i8 %78 to i1
  %80 = zext i1 %79 to i8
  store i8 %80, ptr %15, align 1, !tbaa !12
  br label %81

81:                                               ; preds = %77
  br label %82

82:                                               ; preds = %81
  br label %83

83:                                               ; preds = %82
  store i32 -1, ptr %14, align 4, !tbaa !14
  br label %90

84:                                               ; No predecessors!
  br label %85

85:                                               ; preds = %84
  br label %86

86:                                               ; preds = %85
  br label %87

87:                                               ; preds = %86
  br label %88

88:                                               ; preds = %87, %65
  br label %89

89:                                               ; preds = %88, %31
  br label %90

90:                                               ; preds = %89, %83, %60
  %91 = load i8, ptr %13, align 1, !tbaa !12, !range !16, !noundef !17
  %92 = trunc i8 %91 to i1
  br i1 %92, label %93, label %112

93:                                               ; preds = %90
  %94 = call i32 @H5G_loc_free(ptr noundef %10)
  %95 = icmp slt i32 %94, 0
  br i1 %95, label %96, label %112

96:                                               ; preds = %93
  br label %97

97:                                               ; preds = %96
  br label %98

98:                                               ; preds = %97
  br label %99

99:                                               ; preds = %98
  %100 = load i64, ptr @H5E_OHDR_g, align 8, !tbaa !10
  %101 = load i64, ptr @H5E_CANTRELEASE_g, align 8, !tbaa !10
  %102 = call i32 (ptr, ptr, i32, i64, i64, ptr, ...) @H5E_printf_stack(ptr noundef @.str.3, ptr noundef @__func__.H5O__copy_search_comm_dt_cb, i32 noundef 1386, i64 noundef %100, i64 noundef %101, ptr noundef @.str.9)
  br label %103

103:                                              ; preds = %99
  br label %104

104:                                              ; preds = %103
  store i8 1, ptr %15, align 1, !tbaa !12
  %105 = load i8, ptr %15, align 1, !tbaa !12, !range !16, !noundef !17
  %106 = trunc i8 %105 to i1
  %107 = zext i1 %106 to i8
  store i8 %107, ptr %15, align 1, !tbaa !12
  br label %108

108:                                              ; preds = %104
  br label %109

109:                                              ; preds = %108
  store i32 -1, ptr %14, align 4, !tbaa !14
  br label %110

110:                                              ; preds = %109
  br label %111

111:                                              ; preds = %110
  br label %112

112:                                              ; preds = %111, %93, %90
  br label %113

113:                                              ; preds = %112, %23
  %114 = load i32, ptr %14, align 4, !tbaa !14
  call void @llvm.lifetime.end.p0(i64 1, ptr %15) #8
  call void @llvm.lifetime.end.p0(i64 4, ptr %14) #8
  call void @llvm.lifetime.end.p0(i64 1, ptr %13) #8
  call void @llvm.lifetime.end.p0(i64 24, ptr %12) #8
  call void @llvm.lifetime.end.p0(i64 24, ptr %11) #8
  call void @llvm.lifetime.end.p0(i64 16, ptr %10) #8
  call void @llvm.lifetime.end.p0(i64 8, ptr %9) #8
  ret i32 %114
}