; Function Attrs: nounwind uwtable
define internal range(i32 -1, 1) i32 @H5O__copy_search_comm_dt_cb(i64 %0, ptr noundef %1, ptr noundef readonly captures(none) %2, ptr noundef %3) #0 {
  %5 = alloca %struct.H5G_loc_t, align 8
  %6 = alloca %struct.H5O_loc_t, align 8
  %7 = alloca %struct.H5G_name_t, align 8
  call void @llvm.lifetime.start.p0(i64 16, ptr nonnull %5) #7
  call void @llvm.lifetime.start.p0(i64 24, ptr nonnull %6) #7
  call void @llvm.lifetime.start.p0(i64 24, ptr nonnull %7) #7
  %8 = load i8, ptr @H5O_init_g, align 1, !tbaa !3, !range !7, !noundef !8
  %9 = trunc nuw i8 %8 to i1
  %10 = load i8, ptr @H5_libterm_g, align 1, !range !7
  %11 = trunc nuw i8 %10 to i1
  %12 = xor i1 %11, true
  %13 = select i1 %9, i1 true, i1 %12
  br i1 %13, label %14, label %42, !prof !9

14:                                               ; preds = %4
  %15 = load i32, ptr %2, align 8, !tbaa !154
  %16 = icmp eq i32 %15, 0
  br i1 %16, label %17, label %42

17:                                               ; preds = %14
  store ptr %6, ptr %5, align 8, !tbaa !12
  %18 = getelementptr inbounds nuw i8, ptr %5, i64 8
  store ptr %7, ptr %18, align 8, !tbaa !17
  %19 = call i32 @H5G_loc_reset(ptr noundef nonnull %5) #7
  %20 = getelementptr inbounds nuw i8, ptr %3, i64 8
  %21 = load ptr, ptr %20, align 8, !tbaa !68
  %22 = call i32 @H5G_loc_find(ptr noundef %21, ptr noundef %1, ptr noundef nonnull %5) #7
  %23 = icmp slt i32 %22, 0
  br i1 %23, label %24, label %28

24:                                               ; preds = %17
  %25 = load i64, ptr @H5E_OHDR_g, align 8, !tbaa !10
  %26 = load i64, ptr @H5E_NOTFOUND_g, align 8, !tbaa !10
  %27 = call i32 (ptr, ptr, i32, i64, i64, ptr, ...) @H5E_printf_stack(ptr noundef nonnull @.str.3, ptr noundef nonnull @__func__.H5O__copy_search_comm_dt_cb, i32 noundef 1375, i64 noundef %25, i64 noundef %26, ptr noundef nonnull @.str.50) #7
  br label %42

28:                                               ; preds = %17
  %29 = call fastcc i32 @H5O__copy_search_comm_dt_check(ptr noundef %6, ptr noundef nonnull %3)
  %30 = icmp slt i32 %29, 0
  br i1 %30, label %31, label %35

31:                                               ; preds = %28
  %32 = load i64, ptr @H5E_OHDR_g, align 8, !tbaa !10
  %33 = load i64, ptr @H5E_CANTGET_g, align 8, !tbaa !10
  %34 = call i32 (ptr, ptr, i32, i64, i64, ptr, ...) @H5E_printf_stack(ptr noundef nonnull @.str.3, ptr noundef nonnull @__func__.H5O__copy_search_comm_dt_cb, i32 noundef 1380, i64 noundef %32, i64 noundef %33, ptr noundef nonnull @.str.41) #7
  br label %35

35:                                               ; preds = %31, %28
  %.1.ph = phi i32 [ 0, %28 ], [ -1, %31 ]
  %36 = call i32 @H5G_loc_free(ptr noundef nonnull %5) #7
  %37 = icmp slt i32 %36, 0
  br i1 %37, label %38, label %42

38:                                               ; preds = %35
  %39 = load i64, ptr @H5E_OHDR_g, align 8, !tbaa !10
  %40 = load i64, ptr @H5E_CANTRELEASE_g, align 8, !tbaa !10
  %41 = call i32 (ptr, ptr, i32, i64, i64, ptr, ...) @H5E_printf_stack(ptr noundef nonnull @.str.3, ptr noundef nonnull @__func__.H5O__copy_search_comm_dt_cb, i32 noundef 1386, i64 noundef %39, i64 noundef %40, ptr noundef nonnull @.str.9) #7
  br label %42

42:                                               ; preds = %24, %14, %35, %38, %4
  %.0 = phi i32 [ -1, %38 ], [ %.1.ph, %35 ], [ 0, %4 ], [ -1, %24 ], [ 0, %14 ]
  call void @llvm.lifetime.end.p0(i64 24, ptr nonnull %7) #7
  call void @llvm.lifetime.end.p0(i64 24, ptr nonnull %6) #7
  call void @llvm.lifetime.end.p0(i64 16, ptr nonnull %5) #7
  ret i32 %.0
}